target datalayout = "e-m:e-p270:32:32-p271:32:32-p272:64:64-i64:64-i128:128-f80:128-n8:16:32:64-S128"
target triple = "x86_64-pc-linux-gnu"

%"class.folly::LogCategoryConfig" = type { i32, i8, i32, [4 x i8], %"class.folly::Optional" }
%"class.folly::Optional" = type { %"struct.folly::Optional<std::vector<std::__cxx11::basic_string<char>>>::StorageNonTriviallyDestructible" }
%"struct.folly::Optional<std::vector<std::__cxx11::basic_string<char>>>::StorageNonTriviallyDestructible" = type <{ %union.anon, i8, [7 x i8] }>
%union.anon = type { %"class.std::vector" }
%"class.std::vector" = type { %"struct.std::_Vector_base" }
%"struct.std::_Vector_base" = type { %"struct.std::_Vector_base<std::__cxx11::basic_string<char>, std::allocator<std::__cxx11::basic_string<char>>>::_Vector_impl" }
%"struct.std::_Vector_base<std::__cxx11::basic_string<char>, std::allocator<std::__cxx11::basic_string<char>>>::_Vector_impl" = type { %"struct.std::_Vector_base<std::__cxx11::basic_string<char>, std::allocator<std::__cxx11::basic_string<char>>>::_Vector_impl_data" }
%"struct.std::_Vector_base<std::__cxx11::basic_string<char>, std::allocator<std::__cxx11::basic_string<char>>>::_Vector_impl_data" = type { ptr, ptr, ptr }

; Function Attrs: noinline noreturn nounwind uwtable
define linkonce_odr hidden void @__clang_call_terminate(ptr noundef %0) #1 comdat {
  %2 = call ptr @__cxa_begin_catch(ptr %0) #16
  call void @_ZSt9terminatev() #17
  unreachable
}

; Function Attrs: mustprogress nounwind uwtable
define linkonce_odr void @_ZN5folly8OptionalISt6vectorINSt7__cxx1112basic_stringIcSt11char_traitsIcESaIcEEESaIS7_EEE31StorageNonTriviallyDestructibleC2Ev(ptr noundef nonnull align 8 dereferenceable(25) %0) unnamed_addr #0 comdat align 2 {
  %2 = alloca ptr, align 8
  store ptr %0, ptr %2, align 8, !tbaa !26
  %3 = load ptr, ptr %2, align 8
  %4 = getelementptr inbounds nuw %"struct.folly::Optional<std::vector<std::__cxx11::basic_string<char>>>::StorageNonTriviallyDestructible", ptr %3, i32 0, i32 1
  store i8 0, ptr %4, align 8, !tbaa !28
  ret void
}

; Function Attrs: mustprogress nounwind uwtable
define linkonce_odr void @_ZN5folly8OptionalISt6vectorINSt7__cxx1112basic_stringIcSt11char_traitsIcESaIcEEESaIS7_EEEC2Ev(ptr noundef nonnull align 8 dereferenceable(32) %0) unnamed_addr #0 comdat align 2 personality ptr @__gxx_personality_v0 {
  %2 = alloca ptr, align 8
  store ptr %0, ptr %2, align 8, !tbaa !24
  %3 = load ptr, ptr %2, align 8
  %4 = getelementptr inbounds nuw %"class.folly::Optional", ptr %3, i32 0, i32 0
  invoke void @_ZN5folly8OptionalISt6vectorINSt7__cxx1112basic_stringIcSt11char_traitsIcESaIcEEESaIS7_EEE31StorageNonTriviallyDestructibleC2Ev(ptr noundef nonnull align 8 dereferenceable(25) %4)
          to label %5 unwind label %6

5:                                                ; preds = %1
  ret void

6:                                                ; preds = %1
  %7 = landingpad { ptr, i32 }
          catch ptr null
  %8 = extractvalue { ptr, i32 } %7, 0
  call void @__clang_call_terminate(ptr %8) #17
  unreachable
}

; Function Attrs: mustprogress nounwind uwtable
define void @_ZN5folly17LogCategoryConfigC2ENS_8LogLevelEb(ptr noundef nonnull align 8 dereferenceable(48) %0, i32 noundef %1, i1 noundef zeroext %2) unnamed_addr #0 align 2 {
  %4 = alloca ptr, align 8
  %5 = alloca i32, align 4
  %6 = alloca i8, align 1
  store ptr %0, ptr %4, align 8, !tbaa !7
  store i32 %1, ptr %5, align 4, !tbaa !12
  %7 = zext i1 %2 to i8
  store i8 %7, ptr %6, align 1, !tbaa !14
  %8 = load ptr, ptr %4, align 8
  %9 = getelementptr inbounds nuw %"class.folly::LogCategoryConfig", ptr %8, i32 0, i32 0
  %10 = load i32, ptr %5, align 4, !tbaa !12
  store i32 %10, ptr %9, align 8, !tbaa !16
  %11 = getelementptr inbounds nuw %"class.folly::LogCategoryConfig", ptr %8, i32 0, i32 1
  %12 = load i8, ptr %6, align 1, !tbaa !14, !range !20, !noundef !21
  %13 = trunc i8 %12 to i1
  %14 = zext i1 %13 to i8
  store i8 %14, ptr %11, align 4, !tbaa !22
  %15 = getelementptr inbounds nuw %"class.folly::LogCategoryConfig", ptr %8, i32 0, i32 2
  store i32 1, ptr %15, align 8, !tbaa !23
  %16 = getelementptr inbounds nuw %"class.folly::LogCategoryConfig", ptr %8, i32 0, i32 4
  call void @_ZN5folly8OptionalISt6vectorINSt7__cxx1112basic_stringIcSt11char_traitsIcESaIcEEESaIS7_EEEC2Ev(ptr noundef nonnull align 8 dereferenceable(32) %16) #16
  ret void
}