; Function Attrs: mustprogress nofree norecurse nosync nounwind willreturn memory(argmem: write) uwtable
define void @_ZN5folly17LogCategoryConfigC2ENS_8LogLevelEb(ptr noundef nonnull writeonly align 8 captures(none) dereferenceable(48) initializes((0, 5), (8, 12), (40, 41)) %0, i32 noundef %1, i1 noundef zeroext %2) unnamed_addr #0 align 2 personality ptr @__gxx_personality_v0 {
  %4 = zext i1 %2 to i8
  store i32 %1, ptr %0, align 8, !tbaa !7
  %5 = getelementptr inbounds nuw i8, ptr %0, i64 4
  store i8 %4, ptr %5, align 4, !tbaa !15
  %6 = getelementptr inbounds nuw i8, ptr %0, i64 8
  store i32 1, ptr %6, align 8, !tbaa !16
  %7 = getelementptr inbounds nuw i8, ptr %0, i64 40
  store i8 0, ptr %7, align 8, !tbaa !17
  ret void
}